target datalayout = "e-m:e-p270:32:32-p271:32:32-p272:64:64-i64:64-f80:128-n8:16:32:64-S128"
target triple = "x86_64-pc-linux-gnu"

@.str = private unnamed_addr constant [3 x i8] c"%d\00", align 1
@.str.1 = private unnamed_addr constant [6 x i8] c"%d %d\00", align 1
@.str.2 = private unnamed_addr constant [4 x i8] c"%d\0A\00", align 1

; Function Attrs: noinline nounwind uwtable
define dso_local i32 @main() #0 {
  %1 = alloca i32, align 4
  %2 = alloca i32, align 4
  %3 = alloca [100 x [2 x i32]], align 16
  %4 = alloca [100 x [100 x [100 x i32]]], align 16
  %5 = alloca i32, align 4
  %6 = alloca i32, align 4
  %7 = alloca i32, align 4
  %8 = alloca [100 x i32], align 16
  store i32 0, i32* %1, align 4
  %9 = call i32 (i8*, ...) @__isoc99_scanf(i8* getelementptr inbounds ([3 x i8], [3 x i8]* @.str, i64 0, i64 0), i32* %2)
  store i32 0, i32* %5, align 4
  br label %10

10:                                               ; preds = %204, %0
  %11 = load i32, i32* %5, align 4
  %12 = load i32, i32* %2, align 4
  %13 = icmp slt i32 %11, %12
  br i1 %13, label %14, label %207

14:                                               ; preds = %10
  %15 = load i32, i32* %5, align 4
  %16 = sext i32 %15 to i64
  %17 = getelementptr inbounds [100 x i32], [100 x i32]* %8, i64 0, i64 %16
  store i32 0, i32* %17, align 4
  %18 = load i32, i32* %5, align 4
  %19 = sext i32 %18 to i64
  %20 = getelementptr inbounds [100 x [2 x i32]], [100 x [2 x i32]]* %3, i64 0, i64 %19
  %21 = getelementptr inbounds [2 x i32], [2 x i32]* %20, i64 0, i64 0
  %22 = load i32, i32* %5, align 4
  %23 = sext i32 %22 to i64
  %24 = getelementptr inbounds [100 x [2 x i32]], [100 x [2 x i32]]* %3, i64 0, i64 %23
  %25 = getelementptr inbounds [2 x i32], [2 x i32]* %24, i64 0, i64 1
  %26 = call i32 (i8*, ...) @__isoc99_scanf(i8* getelementptr inbounds ([6 x i8], [6 x i8]* @.str.1, i64 0, i64 0), i32* %21, i32* %25)
  store i32 0, i32* %6, align 4
  br label %27

27:                                               ; preds = %59, %14
  %28 = load i32, i32* %6, align 4
  %29 = load i32, i32* %5, align 4
  %30 = sext i32 %29 to i64
  %31 = getelementptr inbounds [100 x [2 x i32]], [100 x [2 x i32]]* %3, i64 0, i64 %30
  %32 = getelementptr inbounds [2 x i32], [2 x i32]* %31, i64 0, i64 0
  %33 = load i32, i32* %32, align 8
  %34 = icmp slt i32 %28, %33
  br i1 %34, label %35, label %62

35:                                               ; preds = %27
  store i32 0, i32* %7, align 4
  br label %36

36:                                               ; preds = %55, %35
  %37 = load i32, i32* %7, align 4
  %38 = load i32, i32* %5, align 4
  %39 = sext i32 %38 to i64
  %40 = getelementptr inbounds [100 x [2 x i32]], [100 x [2 x i32]]* %3, i64 0, i64 %39
  %41 = getelementptr inbounds [2 x i32], [2 x i32]* %40, i64 0, i64 1
  %42 = load i32, i32* %41, align 4
  %43 = icmp slt i32 %37, %42
  br i1 %43, label %44, label %58

44:                                               ; preds = %36
  %45 = load i32, i32* %5, align 4
  %46 = sext i32 %45 to i64
  %47 = getelementptr inbounds [100 x [100 x [100 x i32]]], [100 x [100 x [100 x i32]]]* %4, i64 0, i64 %46
  %48 = load i32, i32* %6, align 4
  %49 = sext i32 %48 to i64
  %50 = getelementptr inbounds [100 x [100 x i32]], [100 x [100 x i32]]* %47, i64 0, i64 %49
  %51 = load i32, i32* %7, align 4
  %52 = sext i32 %51 to i64
  %53 = getelementptr inbounds [100 x i32], [100 x i32]* %50, i64 0, i64 %52
  %54 = call i32 (i8*, ...) @__isoc99_scanf(i8* getelementptr inbounds ([3 x i8], [3 x i8]* @.str, i64 0, i64 0), i32* %53)
  br label %55

55:                                               ; preds = %44
  %56 = load i32, i32* %7, align 4
  %57 = add nsw i32 %56, 1
  store i32 %57, i32* %7, align 4
  br label %36

58:                                               ; preds = %36
  br label %59

59:                                               ; preds = %58
  %60 = load i32, i32* %6, align 4
  %61 = add nsw i32 %60, 1
  store i32 %61, i32* %6, align 4
  br label %27

62:                                               ; preds = %27
  %63 = load i32, i32* %5, align 4
  %64 = sext i32 %63 to i64
  %65 = getelementptr inbounds [100 x [2 x i32]], [100 x [2 x i32]]* %3, i64 0, i64 %64
  %66 = getelementptr inbounds [2 x i32], [2 x i32]* %65, i64 0, i64 1
  %67 = load i32, i32* %66, align 4
  %68 = icmp eq i32 %67, 1
  br i1 %68, label %69, label %86

69:                                               ; preds = %62
  %70 = load i32, i32* %5, align 4
  %71 = sext i32 %70 to i64
  %72 = getelementptr inbounds [100 x [2 x i32]], [100 x [2 x i32]]* %3, i64 0, i64 %71
  %73 = getelementptr inbounds [2 x i32], [2 x i32]* %72, i64 0, i64 0
  %74 = load i32, i32* %73, align 8
  %75 = icmp eq i32 %74, 1
  br i1 %75, label %76, label %86

76:                                               ; preds = %69
  %77 = load i32, i32* %5, align 4
  %78 = sext i32 %77 to i64
  %79 = getelementptr inbounds [100 x [100 x [100 x i32]]], [100 x [100 x [100 x i32]]]* %4, i64 0, i64 %78
  %80 = getelementptr inbounds [100 x [100 x i32]], [100 x [100 x i32]]* %79, i64 0, i64 0
  %81 = getelementptr inbounds [100 x i32], [100 x i32]* %80, i64 0, i64 0
  %82 = load i32, i32* %81, align 16
  %83 = load i32, i32* %5, align 4
  %84 = sext i32 %83 to i64
  %85 = getelementptr inbounds [100 x i32], [100 x i32]* %8, i64 0, i64 %84
  store i32 %82, i32* %85, align 4
  br label %203

86:                                               ; preds = %69, %62
  store i32 0, i32* %7, align 4
  br label %87

87:                                               ; preds = %153, %86
  %88 = load i32, i32* %7, align 4
  %89 = load i32, i32* %5, align 4
  %90 = sext i32 %89 to i64
  %91 = getelementptr inbounds [100 x [2 x i32]], [100 x [2 x i32]]* %3, i64 0, i64 %90
  %92 = getelementptr inbounds [2 x i32], [2 x i32]* %91, i64 0, i64 1
  %93 = load i32, i32* %92, align 4
  %94 = icmp slt i32 %88, %93
  br i1 %94, label %95, label %156

95:                                               ; preds = %87
  %96 = load i32, i32* %5, align 4
  %97 = sext i32 %96 to i64
  %98 = getelementptr inbounds [100 x [2 x i32]], [100 x [2 x i32]]* %3, i64 0, i64 %97
  %99 = getelementptr inbounds [2 x i32], [2 x i32]* %98, i64 0, i64 1
  %100 = load i32, i32* %99, align 4
  %101 = icmp eq i32 %100, 1
  br i1 %101, label %102, label %119

102:                                              ; preds = %95
  %103 = load i32, i32* %5, align 4
  %104 = sext i32 %103 to i64
  %105 = getelementptr inbounds [100 x i32], [100 x i32]* %8, i64 0, i64 %104
  %106 = load i32, i32* %105, align 4
  %107 = load i32, i32* %5, align 4
  %108 = sext i32 %107 to i64
  %109 = getelementptr inbounds [100 x [100 x [100 x i32]]], [100 x [100 x [100 x i32]]]* %4, i64 0, i64 %108
  %110 = getelementptr inbounds [100 x [100 x i32]], [100 x [100 x i32]]* %109, i64 0, i64 0
  %111 = load i32, i32* %7, align 4
  %112 = sext i32 %111 to i64
  %113 = getelementptr inbounds [100 x i32], [100 x i32]* %110, i64 0, i64 %112
  %114 = load i32, i32* %113, align 4
  %115 = add nsw i32 %106, %114
  %116 = load i32, i32* %5, align 4
  %117 = sext i32 %116 to i64
  %118 = getelementptr inbounds [100 x i32], [100 x i32]* %8, i64 0, i64 %117
  store i32 %115, i32* %118, align 4
  br label %152

119:                                              ; preds = %95
  %120 = load i32, i32* %5, align 4
  %121 = sext i32 %120 to i64
  %122 = getelementptr inbounds [100 x i32], [100 x i32]* %8, i64 0, i64 %121
  %123 = load i32, i32* %122, align 4
  %124 = load i32, i32* %5, align 4
  %125 = sext i32 %124 to i64
  %126 = getelementptr inbounds [100 x [100 x [100 x i32]]], [100 x [100 x [100 x i32]]]* %4, i64 0, i64 %125
  %127 = getelementptr inbounds [100 x [100 x i32]], [100 x [100 x i32]]* %126, i64 0, i64 0
  %128 = load i32, i32* %7, align 4
  %129 = sext i32 %128 to i64
  %130 = getelementptr inbounds [100 x i32], [100 x i32]* %127, i64 0, i64 %129
  %131 = load i32, i32* %130, align 4
  %132 = add nsw i32 %123, %131
  %133 = load i32, i32* %5, align 4
  %134 = sext i32 %133 to i64
  %135 = getelementptr inbounds [100 x [100 x [100 x i32]]], [100 x [100 x [100 x i32]]]* %4, i64 0, i64 %134
  %136 = load i32, i32* %5, align 4
  %137 = sext i32 %136 to i64
  %138 = getelementptr inbounds [100 x [2 x i32]], [100 x [2 x i32]]* %3, i64 0, i64 %137
  %139 = getelementptr inbounds [2 x i32], [2 x i32]* %138, i64 0, i64 0
  %140 = load i32, i32* %139, align 8
  %141 = sub nsw i32 %140, 1
  %142 = sext i32 %141 to i64
  %143 = getelementptr inbounds [100 x [100 x i32]], [100 x [100 x i32]]* %135, i64 0, i64 %142
  %144 = load i32, i32* %7, align 4
  %145 = sext i32 %144 to i64
  %146 = getelementptr inbounds [100 x i32], [100 x i32]* %143, i64 0, i64 %145
  %147 = load i32, i32* %146, align 4
  %148 = add nsw i32 %132, %147
  %149 = load i32, i32* %5, align 4
  %150 = sext i32 %149 to i64
  %151 = getelementptr inbounds [100 x i32], [100 x i32]* %8, i64 0, i64 %150
  store i32 %148, i32* %151, align 4
  br label %152

152:                                              ; preds = %119, %102
  br label %153

153:                                              ; preds = %152
  %154 = load i32, i32* %7, align 4
  %155 = add nsw i32 %154, 1
  store i32 %155, i32* %7, align 4
  br label %87

156:                                              ; preds = %87
  store i32 1, i32* %6, align 4
  br label %157

157:                                              ; preds = %199, %156
  %158 = load i32, i32* %6, align 4
  %159 = load i32, i32* %5, align 4
  %160 = sext i32 %159 to i64
  %161 = getelementptr inbounds [100 x [2 x i32]], [100 x [2 x i32]]* %3, i64 0, i64 %160
  %162 = getelementptr inbounds [2 x i32], [2 x i32]* %161, i64 0, i64 0
  %163 = load i32, i32* %162, align 8
  %164 = sub nsw i32 %163, 2
  %165 = icmp sle i32 %158, %164
  br i1 %165, label %166, label %202

166:                                              ; preds = %157
  %167 = load i32, i32* %5, align 4
  %168 = sext i32 %167 to i64
  %169 = getelementptr inbounds [100 x i32], [100 x i32]* %8, i64 0, i64 %168
  %170 = load i32, i32* %169, align 4
  %171 = load i32, i32* %5, align 4
  %172 = sext i32 %171 to i64
  %173 = getelementptr inbounds [100 x [100 x [100 x i32]]], [100 x [100 x [100 x i32]]]* %4, i64 0, i64 %172
  %174 = load i32, i32* %6, align 4
  %175 = sext i32 %174 to i64
  %176 = getelementptr inbounds [100 x [100 x i32]], [100 x [100 x i32]]* %173, i64 0, i64 %175
  %177 = getelementptr inbounds [100 x i32], [100 x i32]* %176, i64 0, i64 0
  %178 = load i32, i32* %177, align 16
  %179 = add nsw i32 %170, %178
  %180 = load i32, i32* %5, align 4
  %181 = sext i32 %180 to i64
  %182 = getelementptr inbounds [100 x [100 x [100 x i32]]], [100 x [100 x [100 x i32]]]* %4, i64 0, i64 %181
  %183 = load i32, i32* %6, align 4
  %184 = sext i32 %183 to i64
  %185 = getelementptr inbounds [100 x [100 x i32]], [100 x [100 x i32]]* %182, i64 0, i64 %184
  %186 = load i32, i32* %5, align 4
  %187 = sext i32 %186 to i64
  %188 = getelementptr inbounds [100 x [2 x i32]], [100 x [2 x i32]]* %3, i64 0, i64 %187
  %189 = getelementptr inbounds [2 x i32], [2 x i32]* %188, i64 0, i64 1
  %190 = load i32, i32* %189, align 4
  %191 = sub nsw i32 %190, 1
  %192 = sext i32 %191 to i64
  %193 = getelementptr inbounds [100 x i32], [100 x i32]* %185, i64 0, i64 %192
  %194 = load i32, i32* %193, align 4
  %195 = add nsw i32 %179, %194
  %196 = load i32, i32* %5, align 4
  %197 = sext i32 %196 to i64
  %198 = getelementptr inbounds [100 x i32], [100 x i32]* %8, i64 0, i64 %197
  store i32 %195, i32* %198, align 4
  br label %199

199:                                              ; preds = %166
  %200 = load i32, i32* %6, align 4
  %201 = add nsw i32 %200, 1
  store i32 %201, i32* %6, align 4
  br label %157

202:                                              ; preds = %157
  br label %203

203:                                              ; preds = %202, %76
  br label %204

204:                                              ; preds = %203
  %205 = load i32, i32* %5, align 4
  %206 = add nsw i32 %205, 1
  store i32 %206, i32* %5, align 4
  br label %10

207:                                              ; preds = %10
  store i32 0, i32* %5, align 4
  br label %208

208:                                              ; preds = %218, %207
  %209 = load i32, i32* %5, align 4
  %210 = load i32, i32* %2, align 4
  %211 = icmp slt i32 %209, %210
  br i1 %211, label %212, label %221

212:                                              ; preds = %208
  %213 = load i32, i32* %5, align 4
  %214 = sext i32 %213 to i64
  %215 = getelementptr inbounds [100 x i32], [100 x i32]* %8, i64 0, i64 %214
  %216 = load i32, i32* %215, align 4
  %217 = call i32 (i8*, ...) @printf(i8* getelementptr inbounds ([4 x i8], [4 x i8]* @.str.2, i64 0, i64 0), i32 %216)
  br label %218

218:                                              ; preds = %212
  %219 = load i32, i32* %5, align 4
  %220 = add nsw i32 %219, 1
  store i32 %220, i32* %5, align 4
  br label %208

221:                                              ; preds = %208
  ret i32 0
}